; Function Attrs: nounwind uwtable
define hidden zeroext i1 @_mi_prim_random_buf(ptr noundef %0, i64 noundef %1) local_unnamed_addr #0 {
  %3 = load atomic i64, ptr @_mi_prim_random_buf.no_getrandom acquire, align 8
  %4 = icmp eq i64 %3, 0
  br i1 %4, label %5, label %14

5:                                                ; preds = %2
  %6 = tail call i64 (i64, ...) @syscall(i64 noundef 318, ptr noundef %0, i64 noundef %1, i32 noundef 1) #10
  %7 = icmp sgt i64 %6, -1
  br i1 %7, label %8, label %10

8:                                                ; preds = %5
  %9 = icmp eq i64 %1, %6
  br label %.thread

10:                                               ; preds = %5
  %11 = tail call ptr @__errno_location() #12
  %12 = load i32, ptr %11, align 4, !tbaa !15
  %.not = icmp eq i32 %12, 38
  br i1 %.not, label %13, label %.thread

13:                                               ; preds = %10
  store atomic i64 1, ptr @_mi_prim_random_buf.no_getrandom release, align 8
  br label %14

14:                                               ; preds = %13, %2
  %15 = tail call i64 (i64, ...) @syscall(i64 noundef 2, ptr noundef nonnull @.str.2, i32 noundef 524288, i32 noundef 0) #10
  %16 = trunc i64 %15 to i32
  %17 = icmp slt i32 %16, 0
  br i1 %17, label %.thread, label %.preheader

.preheader:                                       ; preds = %14
  %.not49 = icmp eq i64 %1, 0
  br i1 %.not49, label %.thread42, label %.lr.ph

.lr.ph:                                           ; preds = %.preheader, %27
  %.02546 = phi i64 [ %.227, %27 ], [ 0, %.preheader ]
  %18 = getelementptr inbounds nuw i8, ptr %0, i64 %.02546
  %19 = sub nuw i64 %1, %.02546
  %20 = tail call i64 (i64, ...) @syscall(i64 noundef 0, i32 noundef range(i32 0, -2147483648) %16, ptr noundef %18, i64 noundef %19) #10
  %21 = icmp slt i64 %20, 1
  br i1 %21, label %22, label %25

22:                                               ; preds = %.lr.ph
  %23 = tail call ptr @__errno_location() #12
  %24 = load i32, ptr %23, align 4, !tbaa !15
  switch i32 %24, label %.thread42 [
    i32 11, label %27
    i32 4, label %27
  ]

25:                                               ; preds = %.lr.ph
  %26 = add i64 %20, %.02546
  br label %27

27:                                               ; preds = %22, %22, %25
  %.227 = phi i64 [ %26, %25 ], [ %.02546, %22 ], [ %.02546, %22 ]
  %28 = icmp ult i64 %.227, %1
  br i1 %28, label %.lr.ph, label %.thread42

.thread42:                                        ; preds = %27, %22, %.preheader
  %.025.lcssa = phi i64 [ 0, %.preheader ], [ %.02546, %22 ], [ %.227, %27 ]
  %29 = tail call i64 (i64, ...) @syscall(i64 noundef 3, i32 noundef range(i32 0, -2147483648) %16) #10
  %30 = icmp eq i64 %.025.lcssa, %1
  br label %.thread

.thread:                                          ; preds = %10, %8, %.thread42, %14
  %.1 = phi i1 [ %30, %.thread42 ], [ false, %14 ], [ false, %10 ], [ %9, %8 ]
  ret i1 %.1
}